target datalayout = "e-m:e-p270:32:32-p271:32:32-p272:64:64-i64:64-i128:128-f80:128-n8:16:32:64-S128"
target triple = "x86_64-pc-linux-gnu"

%"struct.faiss::ScalarQuantizer::SQuantizer" = type { ptr }
%"struct.faiss::(anonymous namespace)::QuantizerTemplate.6" = type { %"struct.faiss::ScalarQuantizer::SQuantizer", i64, float, float }

; Function Attrs: mustprogress nounwind uwtable
define internal void @_ZNK5faiss12_GLOBAL__N_117QuantizerTemplateINS0_9Codec4bitELb1ELi1EE13decode_vectorEPKhPf(ptr noundef nonnull align 8 dereferenceable(24) %0, ptr noundef %1, ptr noundef %2) unnamed_addr #1 align 2 {
  %4 = alloca ptr, align 8
  %5 = alloca i32, align 4
  %6 = alloca ptr, align 8
  %7 = alloca ptr, align 8
  %8 = alloca ptr, align 8
  %9 = alloca i64, align 8
  %10 = alloca float, align 4
  store ptr %0, ptr %6, align 8
  store ptr %1, ptr %7, align 8
  store ptr %2, ptr %8, align 8
  %11 = load ptr, ptr %6, align 8
  store i64 0, ptr %9, align 8
  br label %12

12:                                               ; preds = %45, %3
  %13 = load i64, ptr %9, align 8
  %14 = getelementptr inbounds %"struct.faiss::(anonymous namespace)::QuantizerTemplate.6", ptr %11, i32 0, i32 1
  %15 = load i64, ptr %14, align 8
  %16 = icmp ult i64 %13, %15
  br i1 %16, label %17, label %48

17:                                               ; preds = %12
  %18 = load ptr, ptr %7, align 8
  %19 = load i64, ptr %9, align 8
  %20 = trunc i64 %19 to i32
  store ptr %18, ptr %4, align 8
  store i32 %20, ptr %5, align 4
  %21 = load ptr, ptr %4, align 8
  %22 = load i32, ptr %5, align 4
  %23 = sdiv i32 %22, 2
  %24 = sext i32 %23 to i64
  %25 = getelementptr inbounds i8, ptr %21, i64 %24
  %26 = load i8, ptr %25, align 1
  %27 = zext i8 %26 to i32
  %28 = load i32, ptr %5, align 4
  %29 = and i32 %28, 1
  %30 = shl i32 %29, 2
  %31 = ashr i32 %27, %30
  %32 = and i32 %31, 15
  %33 = sitofp i32 %32 to float
  %34 = fadd float %33, 5.000000e-01
  %35 = fdiv float %34, 1.500000e+01
  store float %35, ptr %10, align 4
  %36 = getelementptr inbounds %"struct.faiss::(anonymous namespace)::QuantizerTemplate.6", ptr %11, i32 0, i32 2
  %37 = load float, ptr %36, align 8
  %38 = load float, ptr %10, align 4
  %39 = getelementptr inbounds %"struct.faiss::(anonymous namespace)::QuantizerTemplate.6", ptr %11, i32 0, i32 3
  %40 = load float, ptr %39, align 4
  %41 = call float @llvm.fmuladd.f32(float %38, float %40, float %37)
  %42 = load ptr, ptr %8, align 8
  %43 = load i64, ptr %9, align 8
  %44 = getelementptr inbounds float, ptr %42, i64 %43
  store float %41, ptr %44, align 4
  br label %45

45:                                               ; preds = %17
  %46 = load i64, ptr %9, align 8
  %47 = add i64 %46, 1
  store i64 %47, ptr %9, align 8
  br label %12, !llvm.loop !40

48:                                               ; preds = %12
  ret void
}