; Function Attrs: mustprogress nofree norecurse nosync nounwind memory(argmem: readwrite) uwtable
define internal void @_ZNK5faiss12_GLOBAL__N_117QuantizerTemplateINS0_9Codec4bitELb1ELi1EE13decode_vectorEPKhPf(ptr nocapture noundef nonnull readonly align 8 dereferenceable(24) %0, ptr nocapture noundef readonly %1, ptr nocapture noundef writeonly %2) unnamed_addr #17 align 2 {
  %4 = getelementptr inbounds i8, ptr %0, i64 8
  %5 = load i64, ptr %4, align 8
  %.not = icmp eq i64 %5, 0
  br i1 %.not, label %._crit_edge, label %.lr.ph

.lr.ph:                                           ; preds = %3
  %6 = getelementptr inbounds i8, ptr %0, i64 16
  %7 = getelementptr inbounds i8, ptr %0, i64 20
  br label %8

8:                                                ; preds = %.lr.ph, %8
  %.010 = phi i64 [ 0, %.lr.ph ], [ %26, %8 ]
  %9 = trunc i64 %.010 to i32
  %10 = sdiv i32 %9, 2
  %11 = sext i32 %10 to i64
  %12 = getelementptr inbounds i8, ptr %1, i64 %11
  %13 = load i8, ptr %12, align 1
  %14 = zext i8 %13 to i32
  %15 = shl i32 %9, 2
  %16 = and i32 %15, 4
  %17 = lshr i32 %14, %16
  %18 = and i32 %17, 15
  %19 = sitofp i32 %18 to float
  %20 = fadd float %19, 5.000000e-01
  %21 = fdiv float %20, 1.500000e+01
  %22 = load float, ptr %6, align 8
  %23 = load float, ptr %7, align 4
  %24 = tail call float @llvm.fmuladd.f32(float %21, float %23, float %22)
  %25 = getelementptr inbounds float, ptr %2, i64 %.010
  store float %24, ptr %25, align 4
  %26 = add nuw i64 %.010, 1
  %27 = load i64, ptr %4, align 8
  %28 = icmp ult i64 %26, %27
  br i1 %28, label %8, label %._crit_edge, !llvm.loop !39

._crit_edge:                                      ; preds = %8, %3
  ret void
}